target datalayout = "e-m:e-p270:32:32-p271:32:32-p272:64:64-i64:64-i128:128-f80:128-n8:16:32:64-S128"
target triple = "x86_64-pc-linux-gnu"

%class.Function = type { %"class.std::__cxx11::basic_string", %"class.std::vector.3", ptr, %class.Effect, %"class.std::vector.13", %"class.std::vector.13", ptr, ptr, ptr, %"class.std::vector.8", %"class.std::vector.8", i8, i8, i8, i8, i32, %class.Effect, i8, %"class.std::__cxx11::basic_string", i32, %"class.std::vector.8" }
%"class.std::vector.3" = type { %"struct.std::_Vector_base.4" }
%"struct.std::_Vector_base.4" = type { %"struct.std::_Vector_base<Variable *, std::allocator<Variable *>>::_Vector_impl" }
%"struct.std::_Vector_base<Variable *, std::allocator<Variable *>>::_Vector_impl" = type { %"struct.std::_Vector_base<Variable *, std::allocator<Variable *>>::_Vector_impl_data" }
%"struct.std::_Vector_base<Variable *, std::allocator<Variable *>>::_Vector_impl_data" = type { ptr, ptr, ptr }
%"class.std::vector.13" = type { %"struct.std::_Vector_base.14" }
%"struct.std::_Vector_base.14" = type { %"struct.std::_Vector_base<Block *, std::allocator<Block *>>::_Vector_impl" }
%"struct.std::_Vector_base<Block *, std::allocator<Block *>>::_Vector_impl" = type { %"struct.std::_Vector_base<Block *, std::allocator<Block *>>::_Vector_impl_data" }
%"struct.std::_Vector_base<Block *, std::allocator<Block *>>::_Vector_impl_data" = type { ptr, ptr, ptr }
%class.Effect = type <{ %"class.std::vector.8", %"class.std::vector.8", %"class.std::vector.8", i8, i8, [6 x i8] }>
%"class.std::__cxx11::basic_string" = type { %"struct.std::__cxx11::basic_string<char>::_Alloc_hider", i64, %union.anon }
%"struct.std::__cxx11::basic_string<char>::_Alloc_hider" = type { ptr }
%union.anon = type { i64, [8 x i8] }
%"class.std::vector.8" = type { %"struct.std::_Vector_base.9" }
%"struct.std::_Vector_base.9" = type { %"struct.std::_Vector_base<const Variable *, std::allocator<const Variable *>>::_Vector_impl" }
%"struct.std::_Vector_base<const Variable *, std::allocator<const Variable *>>::_Vector_impl" = type { %"struct.std::_Vector_base<const Variable *, std::allocator<const Variable *>>::_Vector_impl_data" }
%"struct.std::_Vector_base<const Variable *, std::allocator<const Variable *>>::_Vector_impl_data" = type { ptr, ptr, ptr }
%class.Statement = type { ptr, i32, i32, ptr, ptr }
%"struct.std::_Rb_tree_header" = type { %"struct.std::_Rb_tree_node_base", i64 }
%"struct.std::_Rb_tree_node_base" = type { i32, ptr, ptr, ptr }
%class.Block = type { %class.Statement, %"class.std::vector.18", %"class.std::vector.18", %"class.std::vector.3", %"class.std::map", i8, i8, i8, %"class.std::vector.26", i8, i32 }
%"class.std::vector.18" = type { %"struct.std::_Vector_base.19" }
%"struct.std::_Vector_base.19" = type { %"struct.std::_Vector_base<Statement *, std::allocator<Statement *>>::_Vector_impl" }
%"struct.std::_Vector_base<Statement *, std::allocator<Statement *>>::_Vector_impl" = type { %"struct.std::_Vector_base<Statement *, std::allocator<Statement *>>::_Vector_impl_data" }
%"struct.std::_Vector_base<Statement *, std::allocator<Statement *>>::_Vector_impl_data" = type { ptr, ptr, ptr }
%"class.std::map" = type { %"class.std::_Rb_tree" }
%"class.std::_Rb_tree" = type { %"struct.std::_Rb_tree<std::__cxx11::basic_string<char>, std::pair<const std::__cxx11::basic_string<char>, eSimpleType>, std::_Select1st<std::pair<const std::__cxx11::basic_string<char>, eSimpleType>>, std::less<std::__cxx11::basic_string<char>>>::_Rb_tree_impl" }
%"struct.std::_Rb_tree<std::__cxx11::basic_string<char>, std::pair<const std::__cxx11::basic_string<char>, eSimpleType>, std::_Select1st<std::pair<const std::__cxx11::basic_string<char>, eSimpleType>>, std::less<std::__cxx11::basic_string<char>>>::_Rb_tree_impl" = type { %"struct.std::_Rb_tree_key_compare", %"struct.std::_Rb_tree_header" }
%"struct.std::_Rb_tree_key_compare" = type { %"struct.std::less" }
%"struct.std::less" = type { i8 }
%"class.std::vector.26" = type { %"struct.std::_Vector_base.27" }
%"struct.std::_Vector_base.27" = type { %"struct.std::_Vector_base<const Statement *, std::allocator<const Statement *>>::_Vector_impl" }
%"struct.std::_Vector_base<const Statement *, std::allocator<const Statement *>>::_Vector_impl" = type { %"struct.std::_Vector_base<const Statement *, std::allocator<const Statement *>>::_Vector_impl_data" }
%"struct.std::_Vector_base<const Statement *, std::allocator<const Statement *>>::_Vector_impl_data" = type { ptr, ptr, ptr }

; Function Attrs: mustprogress nounwind uwtable
define linkonce_odr dso_local noundef nonnull align 8 dereferenceable(8) ptr @_ZNSt6vectorIP8VariableSaIS1_EEixEm(ptr noundef nonnull align 8 dereferenceable(24) %0, i64 noundef %1) #5 comdat align 2 {
  %3 = alloca ptr, align 8
  %4 = alloca i64, align 8
  store ptr %0, ptr %3, align 8
  store i64 %1, ptr %4, align 8
  %5 = load ptr, ptr %3, align 8
  %6 = getelementptr inbounds %"struct.std::_Vector_base.4", ptr %5, i32 0, i32 0
  %7 = getelementptr inbounds %"struct.std::_Vector_base<Variable *, std::allocator<Variable *>>::_Vector_impl_data", ptr %6, i32 0, i32 0
  %8 = load ptr, ptr %7, align 8
  %9 = load i64, ptr %4, align 8
  %10 = getelementptr inbounds ptr, ptr %8, i64 %9
  ret ptr %10
}

; Function Attrs: mustprogress nounwind uwtable
define linkonce_odr dso_local noundef i64 @_ZNKSt6vectorIP8VariableSaIS1_EE4sizeEv(ptr noundef nonnull align 8 dereferenceable(24) %0) #5 comdat align 2 {
  %2 = alloca ptr, align 8
  store ptr %0, ptr %2, align 8
  %3 = load ptr, ptr %2, align 8
  %4 = getelementptr inbounds %"struct.std::_Vector_base.4", ptr %3, i32 0, i32 0
  %5 = getelementptr inbounds %"struct.std::_Vector_base<Variable *, std::allocator<Variable *>>::_Vector_impl_data", ptr %4, i32 0, i32 1
  %6 = load ptr, ptr %5, align 8
  %7 = getelementptr inbounds %"struct.std::_Vector_base.4", ptr %3, i32 0, i32 0
  %8 = getelementptr inbounds %"struct.std::_Vector_base<Variable *, std::allocator<Variable *>>::_Vector_impl_data", ptr %7, i32 0, i32 0
  %9 = load ptr, ptr %8, align 8
  %10 = ptrtoint ptr %6 to i64
  %11 = ptrtoint ptr %9 to i64
  %12 = sub i64 %10, %11
  %13 = sdiv exact i64 %12, 8
  ret i64 %13
}

; Function Attrs: mustprogress uwtable
define dso_local noundef zeroext i1 @_ZNK5Block15is_var_on_stackEPK8Variable(ptr noundef nonnull align 8 dereferenceable(192) %0, ptr noundef %1) #4 align 2 {
  %3 = alloca i1, align 1
  %4 = alloca ptr, align 8
  %5 = alloca ptr, align 8
  %6 = alloca i64, align 8
  %7 = alloca ptr, align 8
  store ptr %0, ptr %4, align 8
  store ptr %1, ptr %5, align 8
  %8 = load ptr, ptr %4, align 8
  store i64 0, ptr %6, align 8
  br label %9

9:                                                ; preds = %27, %2
  %10 = load i64, ptr %6, align 8
  %11 = getelementptr inbounds %class.Statement, ptr %8, i32 0, i32 3
  %12 = load ptr, ptr %11, align 8
  %13 = getelementptr inbounds %class.Function, ptr %12, i32 0, i32 1
  %14 = call noundef i64 @_ZNKSt6vectorIP8VariableSaIS1_EE4sizeEv(ptr noundef nonnull align 8 dereferenceable(24) %13) #3
  %15 = icmp ult i64 %10, %14
  br i1 %15, label %16, label %30

16:                                               ; preds = %9
  %17 = getelementptr inbounds %class.Statement, ptr %8, i32 0, i32 3
  %18 = load ptr, ptr %17, align 8
  %19 = getelementptr inbounds %class.Function, ptr %18, i32 0, i32 1
  %20 = load i64, ptr %6, align 8
  %21 = call noundef nonnull align 8 dereferenceable(8) ptr @_ZNSt6vectorIP8VariableSaIS1_EEixEm(ptr noundef nonnull align 8 dereferenceable(24) %19, i64 noundef %20) #3
  %22 = load ptr, ptr %21, align 8
  %23 = load ptr, ptr %5, align 8
  %24 = call noundef zeroext i1 @_ZNK8Variable5matchEPKS_(ptr noundef nonnull align 8 dereferenceable(200) %22, ptr noundef %23)
  br i1 %24, label %25, label %26

25:                                               ; preds = %16
  store i1 true, ptr %3, align 1
  br label %46

26:                                               ; preds = %16
  br label %27

27:                                               ; preds = %26
  %28 = load i64, ptr %6, align 8
  %29 = add i64 %28, 1
  store i64 %29, ptr %6, align 8
  br label %9, !llvm.loop !21

30:                                               ; preds = %9
  store ptr %8, ptr %7, align 8
  br label %31

31:                                               ; preds = %41, %30
  %32 = load ptr, ptr %7, align 8
  %33 = icmp ne ptr %32, null
  br i1 %33, label %34, label %45

34:                                               ; preds = %31
  %35 = load ptr, ptr %7, align 8
  %36 = getelementptr inbounds %class.Block, ptr %35, i32 0, i32 3
  %37 = load ptr, ptr %5, align 8
  %38 = call noundef i32 @_Z20find_variable_in_setRKSt6vectorIP8VariableSaIS1_EEPKS0_(ptr noundef nonnull align 8 dereferenceable(24) %36, ptr noundef %37)
  %39 = icmp ne i32 %38, -1
  br i1 %39, label %40, label %41

40:                                               ; preds = %34
  store i1 true, ptr %3, align 1
  br label %46

41:                                               ; preds = %34
  %42 = load ptr, ptr %7, align 8
  %43 = getelementptr inbounds %class.Statement, ptr %42, i32 0, i32 4
  %44 = load ptr, ptr %43, align 8
  store ptr %44, ptr %7, align 8
  br label %31, !llvm.loop !22

45:                                               ; preds = %31
  store i1 false, ptr %3, align 1
  br label %46

46:                                               ; preds = %45, %40, %25
  %47 = load i1, ptr %3, align 1
  ret i1 %47
}