; Function Attrs: mustprogress uwtable
define dso_local noundef zeroext i1 @_ZNK5Block15is_var_on_stackEPK8Variable(ptr noundef nonnull align 8 dereferenceable(192) %0, ptr noundef %1) local_unnamed_addr #3 align 2 {
  %3 = getelementptr inbounds i8, ptr %0, i64 16
  %4 = load ptr, ptr %3, align 8
  %5 = getelementptr inbounds i8, ptr %4, i64 32
  %6 = getelementptr inbounds i8, ptr %4, i64 40
  %7 = load ptr, ptr %6, align 8
  %8 = load ptr, ptr %5, align 8
  %.not15 = icmp eq ptr %7, %8
  br i1 %.not15, label %.preheader.preheader, label %.lr.ph

.preheader.preheader:                             ; preds = %9, %2
  br label %.preheader

9:                                                ; preds = %.lr.ph
  %10 = add nuw i64 %.0913, 1
  %11 = load ptr, ptr %3, align 8
  %12 = getelementptr inbounds i8, ptr %11, i64 32
  %13 = getelementptr inbounds i8, ptr %11, i64 40
  %14 = load ptr, ptr %13, align 8
  %15 = load ptr, ptr %12, align 8
  %16 = ptrtoint ptr %14 to i64
  %17 = ptrtoint ptr %15 to i64
  %18 = sub i64 %16, %17
  %19 = ashr exact i64 %18, 3
  %20 = icmp ult i64 %10, %19
  br i1 %20, label %.lr.ph, label %.preheader.preheader, !llvm.loop !49

.lr.ph:                                           ; preds = %2, %9
  %21 = phi ptr [ %15, %9 ], [ %8, %2 ]
  %.0913 = phi i64 [ %10, %9 ], [ 0, %2 ]
  %22 = getelementptr inbounds ptr, ptr %21, i64 %.0913
  %23 = load ptr, ptr %22, align 8
  %24 = tail call noundef zeroext i1 @_ZNK8Variable5matchEPKS_(ptr noundef nonnull align 8 dereferenceable(200) %23, ptr noundef %1)
  br i1 %24, label %.loopexit, label %9

.preheader:                                       ; preds = %.preheader.preheader, %27
  %.014 = phi ptr [ %29, %27 ], [ %0, %.preheader.preheader ]
  %25 = getelementptr inbounds i8, ptr %.014, i64 80
  %26 = tail call noundef i32 @_Z20find_variable_in_setRKSt6vectorIP8VariableSaIS1_EEPKS0_(ptr noundef nonnull align 8 dereferenceable(24) %25, ptr noundef %1)
  %.not11.not = icmp ne i32 %26, -1
  br i1 %.not11.not, label %.loopexit, label %27

27:                                               ; preds = %.preheader
  %28 = getelementptr inbounds i8, ptr %.014, i64 24
  %29 = load ptr, ptr %28, align 8
  %.not = icmp eq ptr %29, null
  br i1 %.not, label %.loopexit, label %.preheader, !llvm.loop !50

.loopexit:                                        ; preds = %.lr.ph, %27, %.preheader
  %.010 = phi i1 [ %.not11.not, %.preheader ], [ %.not11.not, %27 ], [ true, %.lr.ph ]
  ret i1 %.010
}